target datalayout = "e-m:e-p270:32:32-p271:32:32-p272:64:64-i64:64-i128:128-f80:128-n8:16:32:64-S128"
target triple = "x86_64-pc-linux-gnu"

; Function Attrs: nounwind uwtable
define internal void @rgb24ToY_c(ptr noundef %0, ptr noundef %1, ptr noundef %2, ptr noundef %3, i32 noundef %4, ptr noundef %5, ptr noundef %6) #2 {
  %8 = alloca ptr, align 8
  %9 = alloca ptr, align 8
  %10 = alloca ptr, align 8
  %11 = alloca ptr, align 8
  %12 = alloca i32, align 4
  %13 = alloca ptr, align 8
  %14 = alloca ptr, align 8
  %15 = alloca ptr, align 8
  %16 = alloca i32, align 4
  %17 = alloca i32, align 4
  %18 = alloca i32, align 4
  %19 = alloca i32, align 4
  %20 = alloca i32, align 4
  %21 = alloca i32, align 4
  %22 = alloca i32, align 4
  store ptr %0, ptr %8, align 8, !tbaa !34
  store ptr %1, ptr %9, align 8, !tbaa !34
  store ptr %2, ptr %10, align 8, !tbaa !34
  store ptr %3, ptr %11, align 8, !tbaa !34
  store i32 %4, ptr %12, align 4, !tbaa !30
  store ptr %5, ptr %13, align 8, !tbaa !35
  store ptr %6, ptr %14, align 8, !tbaa !31
  call void @llvm.lifetime.start.p0(i64 8, ptr %15) #9
  %23 = load ptr, ptr %8, align 8, !tbaa !34
  store ptr %23, ptr %15, align 8, !tbaa !43
  call void @llvm.lifetime.start.p0(i64 4, ptr %16) #9
  %24 = load ptr, ptr %13, align 8, !tbaa !35
  %25 = getelementptr inbounds i32, ptr %24, i64 0
  %26 = load i32, ptr %25, align 4, !tbaa !30
  store i32 %26, ptr %16, align 4, !tbaa !30
  call void @llvm.lifetime.start.p0(i64 4, ptr %17) #9
  %27 = load ptr, ptr %13, align 8, !tbaa !35
  %28 = getelementptr inbounds i32, ptr %27, i64 1
  %29 = load i32, ptr %28, align 4, !tbaa !30
  store i32 %29, ptr %17, align 4, !tbaa !30
  call void @llvm.lifetime.start.p0(i64 4, ptr %18) #9
  %30 = load ptr, ptr %13, align 8, !tbaa !35
  %31 = getelementptr inbounds i32, ptr %30, i64 2
  %32 = load i32, ptr %31, align 4, !tbaa !30
  store i32 %32, ptr %18, align 4, !tbaa !30
  call void @llvm.lifetime.start.p0(i64 4, ptr %19) #9
  store i32 0, ptr %19, align 4, !tbaa !30
  br label %33

33:                                               ; preds = %81, %7
  %34 = load i32, ptr %19, align 4, !tbaa !30
  %35 = load i32, ptr %12, align 4, !tbaa !30
  %36 = icmp slt i32 %34, %35
  br i1 %36, label %37, label %84

37:                                               ; preds = %33
  call void @llvm.lifetime.start.p0(i64 4, ptr %20) #9
  %38 = load ptr, ptr %9, align 8, !tbaa !34
  %39 = load i32, ptr %19, align 4, !tbaa !30
  %40 = mul nsw i32 %39, 3
  %41 = add nsw i32 %40, 0
  %42 = sext i32 %41 to i64
  %43 = getelementptr inbounds i8, ptr %38, i64 %42
  %44 = load i8, ptr %43, align 1, !tbaa !36
  %45 = zext i8 %44 to i32
  store i32 %45, ptr %20, align 4, !tbaa !30
  call void @llvm.lifetime.start.p0(i64 4, ptr %21) #9
  %46 = load ptr, ptr %9, align 8, !tbaa !34
  %47 = load i32, ptr %19, align 4, !tbaa !30
  %48 = mul nsw i32 %47, 3
  %49 = add nsw i32 %48, 1
  %50 = sext i32 %49 to i64
  %51 = getelementptr inbounds i8, ptr %46, i64 %50
  %52 = load i8, ptr %51, align 1, !tbaa !36
  %53 = zext i8 %52 to i32
  store i32 %53, ptr %21, align 4, !tbaa !30
  call void @llvm.lifetime.start.p0(i64 4, ptr %22) #9
  %54 = load ptr, ptr %9, align 8, !tbaa !34
  %55 = load i32, ptr %19, align 4, !tbaa !30
  %56 = mul nsw i32 %55, 3
  %57 = add nsw i32 %56, 2
  %58 = sext i32 %57 to i64
  %59 = getelementptr inbounds i8, ptr %54, i64 %58
  %60 = load i8, ptr %59, align 1, !tbaa !36
  %61 = zext i8 %60 to i32
  store i32 %61, ptr %22, align 4, !tbaa !30
  %62 = load i32, ptr %16, align 4, !tbaa !30
  %63 = load i32, ptr %20, align 4, !tbaa !30
  %64 = mul nsw i32 %62, %63
  %65 = load i32, ptr %17, align 4, !tbaa !30
  %66 = load i32, ptr %21, align 4, !tbaa !30
  %67 = mul nsw i32 %65, %66
  %68 = add nsw i32 %64, %67
  %69 = load i32, ptr %18, align 4, !tbaa !30
  %70 = load i32, ptr %22, align 4, !tbaa !30
  %71 = mul nsw i32 %69, %70
  %72 = add nsw i32 %68, %71
  %73 = add nsw i32 %72, 524288
  %74 = add nsw i32 %73, 256
  %75 = ashr i32 %74, 9
  %76 = trunc i32 %75 to i16
  %77 = load ptr, ptr %15, align 8, !tbaa !43
  %78 = load i32, ptr %19, align 4, !tbaa !30
  %79 = sext i32 %78 to i64
  %80 = getelementptr inbounds i16, ptr %77, i64 %79
  store i16 %76, ptr %80, align 2, !tbaa !44
  call void @llvm.lifetime.end.p0(i64 4, ptr %22) #9
  call void @llvm.lifetime.end.p0(i64 4, ptr %21) #9
  call void @llvm.lifetime.end.p0(i64 4, ptr %20) #9
  br label %81

81:                                               ; preds = %37
  %82 = load i32, ptr %19, align 4, !tbaa !30
  %83 = add nsw i32 %82, 1
  store i32 %83, ptr %19, align 4, !tbaa !30
  br label %33, !llvm.loop !92

84:                                               ; preds = %33
  call void @llvm.lifetime.end.p0(i64 4, ptr %19) #9
  call void @llvm.lifetime.end.p0(i64 4, ptr %18) #9
  call void @llvm.lifetime.end.p0(i64 4, ptr %17) #9
  call void @llvm.lifetime.end.p0(i64 4, ptr %16) #9
  call void @llvm.lifetime.end.p0(i64 8, ptr %15) #9
  ret void
}