; Function Attrs: nofree norecurse nosync nounwind memory(argmem: readwrite) uwtable
define internal void @rgb24ToY_c(ptr noundef writeonly captures(none) %0, ptr noundef readonly captures(none) %1, ptr readnone captures(none) %2, ptr readnone captures(none) %3, i32 noundef %4, ptr noundef readonly captures(none) %5, ptr readnone captures(none) %6) #1 {
  %8 = load i32, ptr %5, align 4, !tbaa !42
  %9 = getelementptr inbounds nuw i8, ptr %5, i64 4
  %10 = load i32, ptr %9, align 4, !tbaa !42
  %11 = getelementptr inbounds nuw i8, ptr %5, i64 8
  %12 = load i32, ptr %11, align 4, !tbaa !42
  %13 = icmp sgt i32 %4, 0
  br i1 %13, label %.lr.ph.preheader, label %._crit_edge

.lr.ph.preheader:                                 ; preds = %7
  %wide.trip.count = zext nneg i32 %4 to i64
  br label %.lr.ph

.lr.ph:                                           ; preds = %.lr.ph.preheader, %.lr.ph
  %indvars.iv = phi i64 [ 0, %.lr.ph.preheader ], [ %indvars.iv.next, %.lr.ph ]
  %14 = mul nuw nsw i64 %indvars.iv, 3
  %15 = getelementptr inbounds nuw i8, ptr %1, i64 %14
  %16 = load i8, ptr %15, align 1, !tbaa !34
  %17 = zext i8 %16 to i32
  %18 = getelementptr inbounds nuw i8, ptr %15, i64 1
  %19 = load i8, ptr %18, align 1, !tbaa !34
  %20 = zext i8 %19 to i32
  %21 = getelementptr inbounds nuw i8, ptr %15, i64 2
  %22 = load i8, ptr %21, align 1, !tbaa !34
  %23 = zext i8 %22 to i32
  %24 = mul nsw i32 %8, %17
  %25 = mul nsw i32 %10, %20
  %26 = mul nsw i32 %12, %23
  %27 = add i32 %24, 524544
  %28 = add i32 %27, %25
  %29 = add i32 %28, %26
  %30 = lshr i32 %29, 9
  %31 = trunc i32 %30 to i16
  %32 = getelementptr inbounds nuw i16, ptr %0, i64 %indvars.iv
  store i16 %31, ptr %32, align 2, !tbaa !43
  %indvars.iv.next = add nuw nsw i64 %indvars.iv, 1
  %exitcond.not = icmp eq i64 %indvars.iv.next, %wide.trip.count
  br i1 %exitcond.not, label %._crit_edge, label %.lr.ph, !llvm.loop !117

._crit_edge:                                      ; preds = %.lr.ph, %7
  ret void
}